target datalayout = "e-m:e-p270:32:32-p271:32:32-p272:64:64-i64:64-i128:128-f80:128-n8:16:32:64-S128"
target triple = "x86_64-pc-linux-gnu"

; Function Attrs: nounwind uwtable
define internal i32 @pix_abs8_xy2_c(ptr noundef %0, ptr noundef %1, ptr noundef %2, i64 noundef %3, i32 noundef %4) #2 {
  %6 = alloca ptr, align 8
  %7 = alloca ptr, align 8
  %8 = alloca ptr, align 8
  %9 = alloca i64, align 8
  %10 = alloca i32, align 4
  %11 = alloca i32, align 4
  %12 = alloca i32, align 4
  %13 = alloca ptr, align 8
  store ptr %0, ptr %6, align 8, !tbaa !22
  store ptr %1, ptr %7, align 8, !tbaa !24
  store ptr %2, ptr %8, align 8, !tbaa !24
  store i64 %3, ptr %9, align 8, !tbaa !26
  store i32 %4, ptr %10, align 4, !tbaa !11
  call void @llvm.lifetime.start.p0(i64 4, ptr %11) #9
  store i32 0, ptr %11, align 4, !tbaa !11
  call void @llvm.lifetime.start.p0(i64 4, ptr %12) #9
  call void @llvm.lifetime.start.p0(i64 8, ptr %13) #9
  %14 = load ptr, ptr %8, align 8, !tbaa !24
  %15 = load i64, ptr %9, align 8, !tbaa !26
  %16 = getelementptr inbounds i8, ptr %14, i64 %15
  store ptr %16, ptr %13, align 8, !tbaa !24
  store i32 0, ptr %12, align 4, !tbaa !11
  br label %17

17:                                               ; preds = %263, %5
  %18 = load i32, ptr %12, align 4, !tbaa !11
  %19 = load i32, ptr %10, align 4, !tbaa !11
  %20 = icmp slt i32 %18, %19
  br i1 %20, label %21, label %266

21:                                               ; preds = %17
  %22 = load ptr, ptr %7, align 8, !tbaa !24
  %23 = getelementptr inbounds i8, ptr %22, i64 0
  %24 = load i8, ptr %23, align 1, !tbaa !36
  %25 = zext i8 %24 to i32
  %26 = load ptr, ptr %8, align 8, !tbaa !24
  %27 = getelementptr inbounds i8, ptr %26, i64 0
  %28 = load i8, ptr %27, align 1, !tbaa !36
  %29 = zext i8 %28 to i32
  %30 = load ptr, ptr %8, align 8, !tbaa !24
  %31 = getelementptr inbounds i8, ptr %30, i64 1
  %32 = load i8, ptr %31, align 1, !tbaa !36
  %33 = zext i8 %32 to i32
  %34 = add nsw i32 %29, %33
  %35 = load ptr, ptr %13, align 8, !tbaa !24
  %36 = getelementptr inbounds i8, ptr %35, i64 0
  %37 = load i8, ptr %36, align 1, !tbaa !36
  %38 = zext i8 %37 to i32
  %39 = add nsw i32 %34, %38
  %40 = load ptr, ptr %13, align 8, !tbaa !24
  %41 = getelementptr inbounds i8, ptr %40, i64 1
  %42 = load i8, ptr %41, align 1, !tbaa !36
  %43 = zext i8 %42 to i32
  %44 = add nsw i32 %39, %43
  %45 = add nsw i32 %44, 2
  %46 = ashr i32 %45, 2
  %47 = sub nsw i32 %25, %46
  %48 = call i32 @llvm.abs.i32(i32 %47, i1 true)
  %49 = load i32, ptr %11, align 4, !tbaa !11
  %50 = add nsw i32 %49, %48
  store i32 %50, ptr %11, align 4, !tbaa !11
  %51 = load ptr, ptr %7, align 8, !tbaa !24
  %52 = getelementptr inbounds i8, ptr %51, i64 1
  %53 = load i8, ptr %52, align 1, !tbaa !36
  %54 = zext i8 %53 to i32
  %55 = load ptr, ptr %8, align 8, !tbaa !24
  %56 = getelementptr inbounds i8, ptr %55, i64 1
  %57 = load i8, ptr %56, align 1, !tbaa !36
  %58 = zext i8 %57 to i32
  %59 = load ptr, ptr %8, align 8, !tbaa !24
  %60 = getelementptr inbounds i8, ptr %59, i64 2
  %61 = load i8, ptr %60, align 1, !tbaa !36
  %62 = zext i8 %61 to i32
  %63 = add nsw i32 %58, %62
  %64 = load ptr, ptr %13, align 8, !tbaa !24
  %65 = getelementptr inbounds i8, ptr %64, i64 1
  %66 = load i8, ptr %65, align 1, !tbaa !36
  %67 = zext i8 %66 to i32
  %68 = add nsw i32 %63, %67
  %69 = load ptr, ptr %13, align 8, !tbaa !24
  %70 = getelementptr inbounds i8, ptr %69, i64 2
  %71 = load i8, ptr %70, align 1, !tbaa !36
  %72 = zext i8 %71 to i32
  %73 = add nsw i32 %68, %72
  %74 = add nsw i32 %73, 2
  %75 = ashr i32 %74, 2
  %76 = sub nsw i32 %54, %75
  %77 = call i32 @llvm.abs.i32(i32 %76, i1 true)
  %78 = load i32, ptr %11, align 4, !tbaa !11
  %79 = add nsw i32 %78, %77
  store i32 %79, ptr %11, align 4, !tbaa !11
  %80 = load ptr, ptr %7, align 8, !tbaa !24
  %81 = getelementptr inbounds i8, ptr %80, i64 2
  %82 = load i8, ptr %81, align 1, !tbaa !36
  %83 = zext i8 %82 to i32
  %84 = load ptr, ptr %8, align 8, !tbaa !24
  %85 = getelementptr inbounds i8, ptr %84, i64 2
  %86 = load i8, ptr %85, align 1, !tbaa !36
  %87 = zext i8 %86 to i32
  %88 = load ptr, ptr %8, align 8, !tbaa !24
  %89 = getelementptr inbounds i8, ptr %88, i64 3
  %90 = load i8, ptr %89, align 1, !tbaa !36
  %91 = zext i8 %90 to i32
  %92 = add nsw i32 %87, %91
  %93 = load ptr, ptr %13, align 8, !tbaa !24
  %94 = getelementptr inbounds i8, ptr %93, i64 2
  %95 = load i8, ptr %94, align 1, !tbaa !36
  %96 = zext i8 %95 to i32
  %97 = add nsw i32 %92, %96
  %98 = load ptr, ptr %13, align 8, !tbaa !24
  %99 = getelementptr inbounds i8, ptr %98, i64 3
  %100 = load i8, ptr %99, align 1, !tbaa !36
  %101 = zext i8 %100 to i32
  %102 = add nsw i32 %97, %101
  %103 = add nsw i32 %102, 2
  %104 = ashr i32 %103, 2
  %105 = sub nsw i32 %83, %104
  %106 = call i32 @llvm.abs.i32(i32 %105, i1 true)
  %107 = load i32, ptr %11, align 4, !tbaa !11
  %108 = add nsw i32 %107, %106
  store i32 %108, ptr %11, align 4, !tbaa !11
  %109 = load ptr, ptr %7, align 8, !tbaa !24
  %110 = getelementptr inbounds i8, ptr %109, i64 3
  %111 = load i8, ptr %110, align 1, !tbaa !36
  %112 = zext i8 %111 to i32
  %113 = load ptr, ptr %8, align 8, !tbaa !24
  %114 = getelementptr inbounds i8, ptr %113, i64 3
  %115 = load i8, ptr %114, align 1, !tbaa !36
  %116 = zext i8 %115 to i32
  %117 = load ptr, ptr %8, align 8, !tbaa !24
  %118 = getelementptr inbounds i8, ptr %117, i64 4
  %119 = load i8, ptr %118, align 1, !tbaa !36
  %120 = zext i8 %119 to i32
  %121 = add nsw i32 %116, %120
  %122 = load ptr, ptr %13, align 8, !tbaa !24
  %123 = getelementptr inbounds i8, ptr %122, i64 3
  %124 = load i8, ptr %123, align 1, !tbaa !36
  %125 = zext i8 %124 to i32
  %126 = add nsw i32 %121, %125
  %127 = load ptr, ptr %13, align 8, !tbaa !24
  %128 = getelementptr inbounds i8, ptr %127, i64 4
  %129 = load i8, ptr %128, align 1, !tbaa !36
  %130 = zext i8 %129 to i32
  %131 = add nsw i32 %126, %130
  %132 = add nsw i32 %131, 2
  %133 = ashr i32 %132, 2
  %134 = sub nsw i32 %112, %133
  %135 = call i32 @llvm.abs.i32(i32 %134, i1 true)
  %136 = load i32, ptr %11, align 4, !tbaa !11
  %137 = add nsw i32 %136, %135
  store i32 %137, ptr %11, align 4, !tbaa !11
  %138 = load ptr, ptr %7, align 8, !tbaa !24
  %139 = getelementptr inbounds i8, ptr %138, i64 4
  %140 = load i8, ptr %139, align 1, !tbaa !36
  %141 = zext i8 %140 to i32
  %142 = load ptr, ptr %8, align 8, !tbaa !24
  %143 = getelementptr inbounds i8, ptr %142, i64 4
  %144 = load i8, ptr %143, align 1, !tbaa !36
  %145 = zext i8 %144 to i32
  %146 = load ptr, ptr %8, align 8, !tbaa !24
  %147 = getelementptr inbounds i8, ptr %146, i64 5
  %148 = load i8, ptr %147, align 1, !tbaa !36
  %149 = zext i8 %148 to i32
  %150 = add nsw i32 %145, %149
  %151 = load ptr, ptr %13, align 8, !tbaa !24
  %152 = getelementptr inbounds i8, ptr %151, i64 4
  %153 = load i8, ptr %152, align 1, !tbaa !36
  %154 = zext i8 %153 to i32
  %155 = add nsw i32 %150, %154
  %156 = load ptr, ptr %13, align 8, !tbaa !24
  %157 = getelementptr inbounds i8, ptr %156, i64 5
  %158 = load i8, ptr %157, align 1, !tbaa !36
  %159 = zext i8 %158 to i32
  %160 = add nsw i32 %155, %159
  %161 = add nsw i32 %160, 2
  %162 = ashr i32 %161, 2
  %163 = sub nsw i32 %141, %162
  %164 = call i32 @llvm.abs.i32(i32 %163, i1 true)
  %165 = load i32, ptr %11, align 4, !tbaa !11
  %166 = add nsw i32 %165, %164
  store i32 %166, ptr %11, align 4, !tbaa !11
  %167 = load ptr, ptr %7, align 8, !tbaa !24
  %168 = getelementptr inbounds i8, ptr %167, i64 5
  %169 = load i8, ptr %168, align 1, !tbaa !36
  %170 = zext i8 %169 to i32
  %171 = load ptr, ptr %8, align 8, !tbaa !24
  %172 = getelementptr inbounds i8, ptr %171, i64 5
  %173 = load i8, ptr %172, align 1, !tbaa !36
  %174 = zext i8 %173 to i32
  %175 = load ptr, ptr %8, align 8, !tbaa !24
  %176 = getelementptr inbounds i8, ptr %175, i64 6
  %177 = load i8, ptr %176, align 1, !tbaa !36
  %178 = zext i8 %177 to i32
  %179 = add nsw i32 %174, %178
  %180 = load ptr, ptr %13, align 8, !tbaa !24
  %181 = getelementptr inbounds i8, ptr %180, i64 5
  %182 = load i8, ptr %181, align 1, !tbaa !36
  %183 = zext i8 %182 to i32
  %184 = add nsw i32 %179, %183
  %185 = load ptr, ptr %13, align 8, !tbaa !24
  %186 = getelementptr inbounds i8, ptr %185, i64 6
  %187 = load i8, ptr %186, align 1, !tbaa !36
  %188 = zext i8 %187 to i32
  %189 = add nsw i32 %184, %188
  %190 = add nsw i32 %189, 2
  %191 = ashr i32 %190, 2
  %192 = sub nsw i32 %170, %191
  %193 = call i32 @llvm.abs.i32(i32 %192, i1 true)
  %194 = load i32, ptr %11, align 4, !tbaa !11
  %195 = add nsw i32 %194, %193
  store i32 %195, ptr %11, align 4, !tbaa !11
  %196 = load ptr, ptr %7, align 8, !tbaa !24
  %197 = getelementptr inbounds i8, ptr %196, i64 6
  %198 = load i8, ptr %197, align 1, !tbaa !36
  %199 = zext i8 %198 to i32
  %200 = load ptr, ptr %8, align 8, !tbaa !24
  %201 = getelementptr inbounds i8, ptr %200, i64 6
  %202 = load i8, ptr %201, align 1, !tbaa !36
  %203 = zext i8 %202 to i32
  %204 = load ptr, ptr %8, align 8, !tbaa !24
  %205 = getelementptr inbounds i8, ptr %204, i64 7
  %206 = load i8, ptr %205, align 1, !tbaa !36
  %207 = zext i8 %206 to i32
  %208 = add nsw i32 %203, %207
  %209 = load ptr, ptr %13, align 8, !tbaa !24
  %210 = getelementptr inbounds i8, ptr %209, i64 6
  %211 = load i8, ptr %210, align 1, !tbaa !36
  %212 = zext i8 %211 to i32
  %213 = add nsw i32 %208, %212
  %214 = load ptr, ptr %13, align 8, !tbaa !24
  %215 = getelementptr inbounds i8, ptr %214, i64 7
  %216 = load i8, ptr %215, align 1, !tbaa !36
  %217 = zext i8 %216 to i32
  %218 = add nsw i32 %213, %217
  %219 = add nsw i32 %218, 2
  %220 = ashr i32 %219, 2
  %221 = sub nsw i32 %199, %220
  %222 = call i32 @llvm.abs.i32(i32 %221, i1 true)
  %223 = load i32, ptr %11, align 4, !tbaa !11
  %224 = add nsw i32 %223, %222
  store i32 %224, ptr %11, align 4, !tbaa !11
  %225 = load ptr, ptr %7, align 8, !tbaa !24
  %226 = getelementptr inbounds i8, ptr %225, i64 7
  %227 = load i8, ptr %226, align 1, !tbaa !36
  %228 = zext i8 %227 to i32
  %229 = load ptr, ptr %8, align 8, !tbaa !24
  %230 = getelementptr inbounds i8, ptr %229, i64 7
  %231 = load i8, ptr %230, align 1, !tbaa !36
  %232 = zext i8 %231 to i32
  %233 = load ptr, ptr %8, align 8, !tbaa !24
  %234 = getelementptr inbounds i8, ptr %233, i64 8
  %235 = load i8, ptr %234, align 1, !tbaa !36
  %236 = zext i8 %235 to i32
  %237 = add nsw i32 %232, %236
  %238 = load ptr, ptr %13, align 8, !tbaa !24
  %239 = getelementptr inbounds i8, ptr %238, i64 7
  %240 = load i8, ptr %239, align 1, !tbaa !36
  %241 = zext i8 %240 to i32
  %242 = add nsw i32 %237, %241
  %243 = load ptr, ptr %13, align 8, !tbaa !24
  %244 = getelementptr inbounds i8, ptr %243, i64 8
  %245 = load i8, ptr %244, align 1, !tbaa !36
  %246 = zext i8 %245 to i32
  %247 = add nsw i32 %242, %246
  %248 = add nsw i32 %247, 2
  %249 = ashr i32 %248, 2
  %250 = sub nsw i32 %228, %249
  %251 = call i32 @llvm.abs.i32(i32 %250, i1 true)
  %252 = load i32, ptr %11, align 4, !tbaa !11
  %253 = add nsw i32 %252, %251
  store i32 %253, ptr %11, align 4, !tbaa !11
  %254 = load i64, ptr %9, align 8, !tbaa !26
  %255 = load ptr, ptr %7, align 8, !tbaa !24
  %256 = getelementptr inbounds i8, ptr %255, i64 %254
  store ptr %256, ptr %7, align 8, !tbaa !24
  %257 = load i64, ptr %9, align 8, !tbaa !26
  %258 = load ptr, ptr %8, align 8, !tbaa !24
  %259 = getelementptr inbounds i8, ptr %258, i64 %257
  store ptr %259, ptr %8, align 8, !tbaa !24
  %260 = load i64, ptr %9, align 8, !tbaa !26
  %261 = load ptr, ptr %13, align 8, !tbaa !24
  %262 = getelementptr inbounds i8, ptr %261, i64 %260
  store ptr %262, ptr %13, align 8, !tbaa !24
  br label %263

263:                                              ; preds = %21
  %264 = load i32, ptr %12, align 4, !tbaa !11
  %265 = add nsw i32 %264, 1
  store i32 %265, ptr %12, align 4, !tbaa !11
  br label %17, !llvm.loop !44

266:                                              ; preds = %17
  %267 = load i32, ptr %11, align 4, !tbaa !11
  call void @llvm.lifetime.end.p0(i64 8, ptr %13) #9
  call void @llvm.lifetime.end.p0(i64 4, ptr %12) #9
  call void @llvm.lifetime.end.p0(i64 4, ptr %11) #9
  ret i32 %267
}