; Function Attrs: nofree norecurse nosync nounwind memory(argmem: read) uwtable
define internal i32 @pix_abs8_xy2_c(ptr readnone captures(none) %0, ptr noundef readonly captures(none) %1, ptr noundef readonly captures(none) %2, i64 noundef %3, i32 noundef %4) #5 {
  %6 = icmp sgt i32 %4, 0
  br i1 %6, label %.lr.ph.preheader, label %._crit_edge

.lr.ph.preheader:                                 ; preds = %5
  %.phi.trans.insert = getelementptr inbounds nuw i8, ptr %2, i64 3
  %.pre = load i8, ptr %.phi.trans.insert, align 1, !tbaa !20
  %.phi.trans.insert68 = getelementptr inbounds nuw i8, ptr %2, i64 4
  %.pre69 = load i8, ptr %.phi.trans.insert68, align 1, !tbaa !20
  %.phi.trans.insert70 = getelementptr inbounds nuw i8, ptr %2, i64 5
  %.pre71 = load i8, ptr %.phi.trans.insert70, align 1, !tbaa !20
  %.phi.trans.insert72 = getelementptr inbounds nuw i8, ptr %2, i64 6
  %.pre73 = load i8, ptr %.phi.trans.insert72, align 1, !tbaa !20
  br label %.lr.ph

.lr.ph:                                           ; preds = %.lr.ph.preheader, %.lr.ph
  %7 = phi i8 [ %97, %.lr.ph ], [ %.pre73, %.lr.ph.preheader ]
  %8 = phi i8 [ %82, %.lr.ph ], [ %.pre71, %.lr.ph.preheader ]
  %9 = phi i8 [ %67, %.lr.ph ], [ %.pre69, %.lr.ph.preheader ]
  %10 = phi i8 [ %52, %.lr.ph ], [ %.pre, %.lr.ph.preheader ]
  %.pn67 = phi ptr [ %.0, %.lr.ph ], [ %2, %.lr.ph.preheader ]
  %.05966 = phi i32 [ %142, %.lr.ph ], [ 0, %.lr.ph.preheader ]
  %.06065 = phi i32 [ %140, %.lr.ph ], [ 0, %.lr.ph.preheader ]
  %.06164 = phi ptr [ %141, %.lr.ph ], [ %1, %.lr.ph.preheader ]
  %.0 = getelementptr i8, ptr %.pn67, i64 %3
  %11 = load i8, ptr %.06164, align 1, !tbaa !20
  %12 = zext i8 %11 to i32
  %13 = load i8, ptr %.pn67, align 1, !tbaa !20
  %14 = zext i8 %13 to i32
  %15 = getelementptr inbounds nuw i8, ptr %.pn67, i64 1
  %16 = load i8, ptr %15, align 1, !tbaa !20
  %17 = zext i8 %16 to i32
  %18 = load i8, ptr %.0, align 1, !tbaa !20
  %19 = zext i8 %18 to i32
  %20 = getelementptr inbounds nuw i8, ptr %.0, i64 1
  %21 = load i8, ptr %20, align 1, !tbaa !20
  %22 = zext i8 %21 to i32
  %23 = add nuw nsw i32 %17, 2
  %24 = add nuw nsw i32 %23, %14
  %25 = add nuw nsw i32 %24, %19
  %26 = add nuw nsw i32 %25, %22
  %27 = lshr i32 %26, 2
  %28 = sub nsw i32 %12, %27
  %29 = tail call i32 @llvm.abs.i32(i32 %28, i1 true)
  %30 = add nsw i32 %29, %.06065
  %31 = getelementptr inbounds nuw i8, ptr %.06164, i64 1
  %32 = load i8, ptr %31, align 1, !tbaa !20
  %33 = zext i8 %32 to i32
  %34 = getelementptr inbounds nuw i8, ptr %.pn67, i64 2
  %35 = load i8, ptr %34, align 1, !tbaa !20
  %36 = zext i8 %35 to i32
  %37 = getelementptr inbounds nuw i8, ptr %.0, i64 2
  %38 = load i8, ptr %37, align 1, !tbaa !20
  %39 = zext i8 %38 to i32
  %40 = add nuw nsw i32 %23, %22
  %41 = add nuw nsw i32 %40, %36
  %42 = add nuw nsw i32 %41, %39
  %43 = lshr i32 %42, 2
  %44 = sub nsw i32 %33, %43
  %45 = tail call i32 @llvm.abs.i32(i32 %44, i1 true)
  %46 = add nsw i32 %30, %45
  %47 = getelementptr inbounds nuw i8, ptr %.06164, i64 2
  %48 = load i8, ptr %47, align 1, !tbaa !20
  %49 = zext i8 %48 to i32
  %50 = zext i8 %10 to i32
  %51 = getelementptr inbounds nuw i8, ptr %.0, i64 3
  %52 = load i8, ptr %51, align 1, !tbaa !20
  %53 = zext i8 %52 to i32
  %54 = add nuw nsw i32 %36, 2
  %55 = add nuw nsw i32 %54, %39
  %56 = add nuw nsw i32 %55, %50
  %57 = add nuw nsw i32 %56, %53
  %58 = lshr i32 %57, 2
  %59 = sub nsw i32 %49, %58
  %60 = tail call i32 @llvm.abs.i32(i32 %59, i1 true)
  %61 = add nsw i32 %46, %60
  %62 = getelementptr inbounds nuw i8, ptr %.06164, i64 3
  %63 = load i8, ptr %62, align 1, !tbaa !20
  %64 = zext i8 %63 to i32
  %65 = zext i8 %9 to i32
  %66 = getelementptr inbounds nuw i8, ptr %.0, i64 4
  %67 = load i8, ptr %66, align 1, !tbaa !20
  %68 = zext i8 %67 to i32
  %69 = add nuw nsw i32 %50, 2
  %70 = add nuw nsw i32 %69, %53
  %71 = add nuw nsw i32 %70, %65
  %72 = add nuw nsw i32 %71, %68
  %73 = lshr i32 %72, 2
  %74 = sub nsw i32 %64, %73
  %75 = tail call i32 @llvm.abs.i32(i32 %74, i1 true)
  %76 = add nsw i32 %61, %75
  %77 = getelementptr inbounds nuw i8, ptr %.06164, i64 4
  %78 = load i8, ptr %77, align 1, !tbaa !20
  %79 = zext i8 %78 to i32
  %80 = zext i8 %8 to i32
  %81 = getelementptr inbounds nuw i8, ptr %.0, i64 5
  %82 = load i8, ptr %81, align 1, !tbaa !20
  %83 = zext i8 %82 to i32
  %84 = add nuw nsw i32 %65, 2
  %85 = add nuw nsw i32 %84, %68
  %86 = add nuw nsw i32 %85, %80
  %87 = add nuw nsw i32 %86, %83
  %88 = lshr i32 %87, 2
  %89 = sub nsw i32 %79, %88
  %90 = tail call i32 @llvm.abs.i32(i32 %89, i1 true)
  %91 = add nsw i32 %76, %90
  %92 = getelementptr inbounds nuw i8, ptr %.06164, i64 5
  %93 = load i8, ptr %92, align 1, !tbaa !20
  %94 = zext i8 %93 to i32
  %95 = zext i8 %7 to i32
  %96 = getelementptr inbounds nuw i8, ptr %.0, i64 6
  %97 = load i8, ptr %96, align 1, !tbaa !20
  %98 = zext i8 %97 to i32
  %99 = add nuw nsw i32 %80, 2
  %100 = add nuw nsw i32 %99, %83
  %101 = add nuw nsw i32 %100, %95
  %102 = add nuw nsw i32 %101, %98
  %103 = lshr i32 %102, 2
  %104 = sub nsw i32 %94, %103
  %105 = tail call i32 @llvm.abs.i32(i32 %104, i1 true)
  %106 = add nsw i32 %91, %105
  %107 = getelementptr inbounds nuw i8, ptr %.06164, i64 6
  %108 = load i8, ptr %107, align 1, !tbaa !20
  %109 = zext i8 %108 to i32
  %110 = getelementptr inbounds nuw i8, ptr %.pn67, i64 7
  %111 = load i8, ptr %110, align 1, !tbaa !20
  %112 = zext i8 %111 to i32
  %113 = getelementptr inbounds nuw i8, ptr %.0, i64 7
  %114 = load i8, ptr %113, align 1, !tbaa !20
  %115 = zext i8 %114 to i32
  %116 = add nuw nsw i32 %95, 2
  %117 = add nuw nsw i32 %116, %98
  %118 = add nuw nsw i32 %117, %112
  %119 = add nuw nsw i32 %118, %115
  %120 = lshr i32 %119, 2
  %121 = sub nsw i32 %109, %120
  %122 = tail call i32 @llvm.abs.i32(i32 %121, i1 true)
  %123 = add nsw i32 %106, %122
  %124 = getelementptr inbounds nuw i8, ptr %.06164, i64 7
  %125 = load i8, ptr %124, align 1, !tbaa !20
  %126 = zext i8 %125 to i32
  %127 = getelementptr inbounds nuw i8, ptr %.pn67, i64 8
  %128 = load i8, ptr %127, align 1, !tbaa !20
  %129 = zext i8 %128 to i32
  %130 = getelementptr inbounds nuw i8, ptr %.0, i64 8
  %131 = load i8, ptr %130, align 1, !tbaa !20
  %132 = zext i8 %131 to i32
  %133 = add nuw nsw i32 %112, 2
  %134 = add nuw nsw i32 %133, %115
  %135 = add nuw nsw i32 %134, %129
  %136 = add nuw nsw i32 %135, %132
  %137 = lshr i32 %136, 2
  %138 = sub nsw i32 %126, %137
  %139 = tail call i32 @llvm.abs.i32(i32 %138, i1 true)
  %140 = add nsw i32 %123, %139
  %141 = getelementptr inbounds i8, ptr %.06164, i64 %3
  %142 = add nuw nsw i32 %.05966, 1
  %exitcond.not = icmp eq i32 %142, %4
  br i1 %exitcond.not, label %._crit_edge, label %.lr.ph, !llvm.loop !28

._crit_edge:                                      ; preds = %.lr.ph, %5
  %.060.lcssa = phi i32 [ 0, %5 ], [ %140, %.lr.ph ]
  ret i32 %.060.lcssa
}